(dp0
S'Donald Trump'
p1
(lp2
ccopy_reg
_reconstructor
p3
(csklearn.ensemble.weight_boosting
AdaBoostRegressor
p4
c__builtin__
object
p5
Ntp6
Rp7
(dp8
S'loss'
p9
S'linear'
p10
sS'base_estimator'
p11
NsS'estimators_'
p12
(lp13
sS'learning_rate'
p14
F1.0
sS'n_estimators'
p15
I50
sS'random_state'
p16
NsS'estimator_params'
p17
(tsbag3
(csklearn.linear_model.base
LinearRegression
p18
g5
Ntp19
Rp20
(dp21
S'normalize'
p22
I00
sS'copy_X'
p23
I01
sS'n_jobs'
p24
I1
sS'fit_intercept'
p25
I01
sbag20
ag7
asS'John Kasich'
p26
(lp27
g7
ag3
(csklearn.ensemble.gradient_boosting
GradientBoostingRegressor
p28
g5
Ntp29
Rp30
(dp31
S'warm_start'
p32
I00
sg9
S'ls'
p33
sg12
cnumpy.core.multiarray
_reconstruct
p34
(cnumpy
ndarray
p35
(I0
tp36
S'b'
p37
tp38
Rp39
(I1
(I0
I0
tp40
cnumpy
dtype
p41
(S'O8'
p42
I0
I1
tp43
Rp44
(I3
S'|'
p45
NNNI-1
I-1
I63
tp46
bI00
(lp47
tp48
bsS'verbose'
p49
I0
sS'max_features'
p50
Nsg16
Nsg14
F0.1
sS'presort'
p51
S'auto'
p52
sS'min_samples_leaf'
p53
I1
sg15
I100
sS'subsample'
p54
F1.0
sS'init'
p55
NsS'min_weight_fraction_leaf'
p56
F0.0
sS'max_leaf_nodes'
p57
NsS'min_samples_split'
p58
I2
sS'alpha'
p59
F0.9
sS'max_depth'
p60
I3
sbag3
(csklearn.ensemble.forest
RandomForestRegressor
p61
g5
Ntp62
Rp63
(dp64
g32
I00
sg11
g3
(csklearn.tree.tree
DecisionTreeRegressor
p65
g5
Ntp66
Rp67
(dp68
g51
I00
sS'splitter'
p69
S'best'
p70
sS'tree_'
p71
NsS'n_features_'
p72
NsS'n_outputs_'
p73
NsS'n_classes_'
p74
Nsg16
NsS'classes_'
p75
NsS'max_features_'
p76
Nsg53
I1
sg50
Nsg56
F0.0
sS'criterion'
p77
S'mse'
p78
sg57
Nsg58
I2
sg60
NsS'class_weight'
p79
Nsbsg12
(lp80
sg24
I1
sg49
I0
sg16
NsS'bootstrap'
p81
I01
sS'oob_score'
p82
I00
sg53
I1
sg15
I100
sg50
g52
sg17
(S'criterion'
p83
S'max_depth'
p84
S'min_samples_split'
p85
S'min_samples_leaf'
p86
S'min_weight_fraction_leaf'
p87
S'max_features'
p88
S'max_leaf_nodes'
p89
S'random_state'
p90
tp91
sg77
g78
sg56
F0.0
sg57
Nsg58
I2
sg60
Nsg79
Nsbag30
asS'Ted Cruz'
p92
(lp93
g63
ag7
ag63
ag7
as.