(dp0
S'Donald Trump'
p1
(lp2
(ccopy_reg
_reconstructor
p3
(csklearn.ensemble.forest
RandomForestRegressor
p4
c__builtin__
object
p5
Ntp6
Rp7
(dp8
S'warm_start'
p9
I00
sS'base_estimator'
p10
g3
(csklearn.tree.tree
DecisionTreeRegressor
p11
g5
Ntp12
Rp13
(dp14
S'presort'
p15
I00
sS'splitter'
p16
S'best'
p17
sS'tree_'
p18
NsS'n_features_'
p19
NsS'n_outputs_'
p20
NsS'n_classes_'
p21
NsS'random_state'
p22
NsS'classes_'
p23
NsS'max_features_'
p24
NsS'min_samples_leaf'
p25
I1
sS'max_features'
p26
NsS'min_weight_fraction_leaf'
p27
F0.0
sS'criterion'
p28
S'mse'
p29
sS'max_leaf_nodes'
p30
NsS'min_samples_split'
p31
I2
sS'max_depth'
p32
NsS'class_weight'
p33
NsbsS'estimators_'
p34
(lp35
sS'n_jobs'
p36
I1
sS'verbose'
p37
I0
sg22
NsS'bootstrap'
p38
I01
sS'oob_score'
p39
I00
sg25
I1
sS'n_estimators'
p40
I100
sg26
S'auto'
p41
sS'estimator_params'
p42
(S'criterion'
p43
S'max_depth'
p44
S'min_samples_split'
p45
S'min_samples_leaf'
p46
S'min_weight_fraction_leaf'
p47
S'max_features'
p48
S'max_leaf_nodes'
p49
S'random_state'
p50
tp51
sg28
g29
sg27
F0.0
sg30
Nsg31
I2
sg32
Nsg33
Nsbcnumpy.core.multiarray
scalar
p52
(cnumpy
dtype
p53
(S'f8'
p54
I0
I1
tp55
Rp56
(I3
S'<'
p57
NNNI-1
I-1
I0
tp58
bS'v\x1c\xf7\xf8E]u\xbf'
p59
tp60
Rp61
tp62
a(g3
(csklearn.linear_model.base
LinearRegression
p63
g5
Ntp64
Rp65
(dp66
S'normalize'
p67
I00
sS'copy_X'
p68
I01
sg36
I1
sS'fit_intercept'
p69
I01
sbg52
(g56
S'\x93e\x95-x\x89z\xbf'
p70
tp71
Rp72
tp73
a(g3
(csklearn.ensemble.weight_boosting
AdaBoostRegressor
p74
g5
Ntp75
Rp76
(dp77
S'loss'
p78
S'linear'
p79
sg10
Nsg34
(lp80
sS'learning_rate'
p81
F1.0
sg40
I50
sg22
Nsg42
(tsbg52
(g56
S'=\xf3r\xd8}\xc7p\xbf'
p82
tp83
Rp84
tp85
a(g3
(csklearn.ensemble.gradient_boosting
GradientBoostingRegressor
p86
g5
Ntp87
Rp88
(dp89
g9
I00
sg78
S'ls'
p90
sg34
cnumpy.core.multiarray
_reconstruct
p91
(cnumpy
ndarray
p92
(I0
tp93
S'b'
p94
tp95
Rp96
(I1
(I0
I0
tp97
g53
(S'O8'
p98
I0
I1
tp99
Rp100
(I3
S'|'
p101
NNNI-1
I-1
I63
tp102
bI00
(lp103
tp104
bsg37
I0
sg26
Nsg22
Nsg81
F0.1
sg15
g41
sg25
I1
sg40
I100
sS'subsample'
p105
F1.0
sS'init'
p106
Nsg27
F0.0
sg30
Nsg31
I2
sS'alpha'
p107
F0.9
sg32
I3
sbg52
(g56
S'\x9aV-\xc8X\xca\x80\xbf'
p108
tp109
Rp110
tp111
asS'John Kasich'
p112
(lp113
(g76
g52
(g56
S'\xe6\xec\xaa\x1es\xfc\x84\xbf'
p114
tp115
Rp116
tp117
a(g88
g52
(g56
S'\xb1h\x952\x94:y\xbf'
p118
tp119
Rp120
tp121
a(g76
g52
(g56
S'\xca\x10\x11H\xd3\xeau\xbf'
p122
tp123
Rp124
tp125
a(g88
g52
(g56
S'\xd2\x07B\xe5d5\x8c\xbf'
p126
tp127
Rp128
tp129
asS'Ted Cruz'
p130
(lp131
(g7
g52
(g56
S'\xcdLX\xfc{T\x7f\xbf'
p132
tp133
Rp134
tp135
a(g76
g52
(g56
S'2\x16\xc1\xc86\xed\x87\xbf'
p136
tp137
Rp138
tp139
a(g88
g52
(g56
S'0^\xa5\x0b\xafoc\xbf'
p140
tp141
Rp142
tp143
a(g76
g52
(g56
S'=`\x1c\xf6\x89\xe8\x8c\xbf'
p144
tp145
Rp146
tp147
as.